; Function Attrs: mustprogress nounwind sspstrong willreturn memory(readwrite, argmem: none) uwtable
define dso_local noalias noundef ptr @rb_parser_st_init_table(ptr noundef %0) local_unnamed_addr #6 {
  %2 = tail call noalias dereferenceable_or_null(56) ptr @malloc(i64 noundef 56) #24
  %3 = icmp eq ptr %2, null
  br i1 %3, label %rb_parser_st_init_table_with_size.exit, label %4

4:                                                ; preds = %1
  %5 = getelementptr inbounds nuw i8, ptr %2, i64 8
  store ptr %0, ptr %5, align 8, !tbaa !7
  store i8 2, ptr %2, align 8, !tbaa !17
  %6 = getelementptr inbounds nuw i8, ptr %2, i64 1
  store i8 3, ptr %6, align 1, !tbaa !20
  %7 = getelementptr inbounds nuw i8, ptr %2, i64 2
  store i8 0, ptr %7, align 2, !tbaa !22
  %8 = getelementptr inbounds nuw i8, ptr %2, i64 24
  store ptr null, ptr %8, align 8, !tbaa !23
  %9 = tail call noalias dereferenceable_or_null(96) ptr @malloc(i64 noundef 96) #24
  %10 = getelementptr inbounds nuw i8, ptr %2, i64 48
  store ptr %9, ptr %10, align 8, !tbaa !25
  %11 = icmp eq ptr %9, null
  br i1 %11, label %15, label %rb_parser_st_init_existing_table_with_size.exit

rb_parser_st_init_existing_table_with_size.exit:  ; preds = %4
  %12 = getelementptr inbounds nuw i8, ptr %2, i64 16
  store i64 0, ptr %12, align 8, !tbaa !26
  %13 = getelementptr inbounds nuw i8, ptr %2, i64 32
  tail call void @llvm.memset.p0.i64(ptr noundef nonnull align 8 dereferenceable(16) %13, i8 0, i64 16, i1 false)
  %14 = getelementptr inbounds nuw i8, ptr %2, i64 4
  store i32 0, ptr %14, align 4, !tbaa !27
  br label %rb_parser_st_init_table_with_size.exit

15:                                               ; preds = %4
  tail call void @free(ptr noundef nonnull %2) #25
  tail call void @free(ptr noundef nonnull %2) #25
  br label %rb_parser_st_init_table_with_size.exit

rb_parser_st_init_table_with_size.exit:           ; preds = %rb_parser_st_init_existing_table_with_size.exit, %1, %15
  %.0.i = phi ptr [ null, %15 ], [ null, %1 ], [ %2, %rb_parser_st_init_existing_table_with_size.exit ]
  ret ptr %.0.i
}